target datalayout = "e-m:e-p270:32:32-p271:32:32-p272:64:64-i64:64-i128:128-f80:128-n8:16:32:64-S128"
target triple = "x86_64-pc-linux-gnu"

%struct.SurfaceDataRasInfo = type { %struct.SurfaceDataBounds, ptr, i32, i32, i32, i32, ptr, ptr, ptr, ptr, ptr, ptr, i32, %union.anon.0 }
%struct.SurfaceDataBounds = type { i32, i32, i32, i32 }
%union.anon.0 = type { ptr, [56 x i8] }

; Function Attrs: nounwind uwtable
define hidden void @ByteIndexedBmToUshort555RgbxScaleXparOver(ptr noundef %0, ptr noundef %1, i32 noundef %2, i32 noundef %3, i32 noundef %4, i32 noundef %5, i32 noundef %6, i32 noundef %7, i32 noundef %8, ptr noundef %9, ptr noundef %10, ptr noundef %11, ptr noundef %12) #1 {
  %14 = alloca ptr, align 8
  %15 = alloca ptr, align 8
  %16 = alloca i32, align 4
  %17 = alloca i32, align 4
  %18 = alloca i32, align 4
  %19 = alloca i32, align 4
  %20 = alloca i32, align 4
  %21 = alloca i32, align 4
  %22 = alloca i32, align 4
  %23 = alloca ptr, align 8
  %24 = alloca ptr, align 8
  %25 = alloca ptr, align 8
  %26 = alloca ptr, align 8
  %27 = alloca [256 x i32], align 16
  %28 = alloca ptr, align 8
  %29 = alloca i32, align 4
  %30 = alloca ptr, align 8
  %31 = alloca i32, align 4
  %32 = alloca i32, align 4
  %33 = alloca ptr, align 8
  %34 = alloca ptr, align 8
  %35 = alloca i32, align 4
  %36 = alloca i32, align 4
  %37 = alloca i32, align 4
  %38 = alloca i32, align 4
  %39 = alloca i32, align 4
  %40 = alloca i32, align 4
  store ptr %0, ptr %14, align 8
  store ptr %1, ptr %15, align 8
  store i32 %2, ptr %16, align 4
  store i32 %3, ptr %17, align 4
  store i32 %4, ptr %18, align 4
  store i32 %5, ptr %19, align 4
  store i32 %6, ptr %20, align 4
  store i32 %7, ptr %21, align 4
  store i32 %8, ptr %22, align 4
  store ptr %9, ptr %23, align 8
  store ptr %10, ptr %24, align 8
  store ptr %11, ptr %25, align 8
  store ptr %12, ptr %26, align 8
  br label %41

41:                                               ; preds = %13
  %42 = load ptr, ptr %23, align 8
  %43 = getelementptr inbounds %struct.SurfaceDataRasInfo, ptr %42, i32 0, i32 6
  %44 = load ptr, ptr %43, align 8
  store ptr %44, ptr %28, align 8
  %45 = load ptr, ptr %23, align 8
  %46 = getelementptr inbounds %struct.SurfaceDataRasInfo, ptr %45, i32 0, i32 5
  %47 = load i32, ptr %46, align 4
  store i32 %47, ptr %29, align 4
  %48 = load i32, ptr %29, align 4
  %49 = icmp uge i32 %48, 256
  br i1 %49, label %50, label %51

50:                                               ; preds = %41
  store i32 256, ptr %29, align 4
  br label %64

51:                                               ; preds = %41
  %52 = load i32, ptr %29, align 4
  %53 = zext i32 %52 to i64
  %54 = getelementptr inbounds [256 x i32], ptr %27, i64 0, i64 %53
  store ptr %54, ptr %30, align 8
  br label %55

55:                                               ; preds = %58, %51
  %56 = load ptr, ptr %30, align 8
  %57 = getelementptr inbounds i32, ptr %56, i64 0
  store i32 -1, ptr %57, align 4
  br label %58

58:                                               ; preds = %55
  %59 = load ptr, ptr %30, align 8
  %60 = getelementptr inbounds i32, ptr %59, i32 1
  store ptr %60, ptr %30, align 8
  %61 = getelementptr inbounds [256 x i32], ptr %27, i64 0, i64 256
  %62 = icmp ult ptr %60, %61
  br i1 %62, label %55, label %63, !llvm.loop !35

63:                                               ; preds = %58
  br label %64

64:                                               ; preds = %63, %50
  br label %65

65:                                               ; preds = %64
  store i32 0, ptr %31, align 4
  br label %66

66:                                               ; preds = %98, %65
  br label %67

67:                                               ; preds = %66
  %68 = load ptr, ptr %28, align 8
  %69 = load i32, ptr %31, align 4
  %70 = zext i32 %69 to i64
  %71 = getelementptr inbounds i32, ptr %68, i64 %70
  %72 = load i32, ptr %71, align 4
  store i32 %72, ptr %32, align 4
  %73 = load i32, ptr %32, align 4
  %74 = icmp slt i32 %73, 0
  br i1 %74, label %75, label %92

75:                                               ; preds = %67
  %76 = load i32, ptr %32, align 4
  %77 = ashr i32 %76, 8
  %78 = and i32 %77, 63488
  %79 = load i32, ptr %32, align 4
  %80 = ashr i32 %79, 5
  %81 = and i32 %80, 1984
  %82 = or i32 %78, %81
  %83 = load i32, ptr %32, align 4
  %84 = ashr i32 %83, 2
  %85 = and i32 %84, 62
  %86 = or i32 %82, %85
  %87 = trunc i32 %86 to i16
  %88 = zext i16 %87 to i32
  %89 = load i32, ptr %31, align 4
  %90 = zext i32 %89 to i64
  %91 = getelementptr inbounds [256 x i32], ptr %27, i64 0, i64 %90
  store i32 %88, ptr %91, align 4
  br label %96

92:                                               ; preds = %67
  %93 = load i32, ptr %31, align 4
  %94 = zext i32 %93 to i64
  %95 = getelementptr inbounds [256 x i32], ptr %27, i64 0, i64 %94
  store i32 -1, ptr %95, align 4
  br label %96

96:                                               ; preds = %92, %75
  br label %97

97:                                               ; preds = %96
  br label %98

98:                                               ; preds = %97
  %99 = load i32, ptr %31, align 4
  %100 = add i32 %99, 1
  store i32 %100, ptr %31, align 4
  %101 = load i32, ptr %29, align 4
  %102 = icmp ult i32 %100, %101
  br i1 %102, label %66, label %103, !llvm.loop !36

103:                                              ; preds = %98
  br label %104

104:                                              ; preds = %103
  br label %105

105:                                              ; preds = %104
  br label %106

106:                                              ; preds = %105
  %107 = load ptr, ptr %15, align 8
  store ptr %107, ptr %34, align 8
  %108 = load ptr, ptr %23, align 8
  %109 = getelementptr inbounds %struct.SurfaceDataRasInfo, ptr %108, i32 0, i32 4
  %110 = load i32, ptr %109, align 8
  store i32 %110, ptr %35, align 4
  %111 = load ptr, ptr %24, align 8
  %112 = getelementptr inbounds %struct.SurfaceDataRasInfo, ptr %111, i32 0, i32 4
  %113 = load i32, ptr %112, align 8
  store i32 %113, ptr %36, align 4
  %114 = load i32, ptr %16, align 4
  %115 = mul i32 %114, 2
  %116 = load i32, ptr %36, align 4
  %117 = sub i32 %116, %115
  store i32 %117, ptr %36, align 4
  br label %118

118:                                              ; preds = %175, %106
  %119 = load i32, ptr %16, align 4
  store i32 %119, ptr %37, align 4
  %120 = load i32, ptr %18, align 4
  store i32 %120, ptr %38, align 4
  %121 = load ptr, ptr %14, align 8
  %122 = ptrtoint ptr %121 to i64
  %123 = load i32, ptr %19, align 4
  %124 = load i32, ptr %22, align 4
  %125 = ashr i32 %123, %124
  %126 = sext i32 %125 to i64
  %127 = load i32, ptr %35, align 4
  %128 = sext i32 %127 to i64
  %129 = mul nsw i64 %126, %128
  %130 = add nsw i64 %122, %129
  %131 = inttoptr i64 %130 to ptr
  store ptr %131, ptr %33, align 8
  br label %132

132:                                              ; preds = %161, %118
  %133 = load i32, ptr %38, align 4
  %134 = load i32, ptr %22, align 4
  %135 = ashr i32 %133, %134
  store i32 %135, ptr %39, align 4
  br label %136

136:                                              ; preds = %132
  %137 = load ptr, ptr %33, align 8
  %138 = load i32, ptr %39, align 4
  %139 = sext i32 %138 to i64
  %140 = getelementptr inbounds i8, ptr %137, i64 %139
  %141 = load i8, ptr %140, align 1
  %142 = zext i8 %141 to i64
  %143 = getelementptr inbounds [256 x i32], ptr %27, i64 0, i64 %142
  %144 = load i32, ptr %143, align 4
  store i32 %144, ptr %40, align 4
  %145 = load i32, ptr %40, align 4
  %146 = icmp slt i32 %145, 0
  br i1 %146, label %152, label %147

147:                                              ; preds = %136
  %148 = load i32, ptr %40, align 4
  %149 = trunc i32 %148 to i16
  %150 = load ptr, ptr %34, align 8
  %151 = getelementptr inbounds i16, ptr %150, i64 0
  store i16 %149, ptr %151, align 2
  br label %152

152:                                              ; preds = %147, %136
  br label %153

153:                                              ; preds = %152
  %154 = load ptr, ptr %34, align 8
  %155 = ptrtoint ptr %154 to i64
  %156 = add nsw i64 %155, 2
  %157 = inttoptr i64 %156 to ptr
  store ptr %157, ptr %34, align 8
  %158 = load i32, ptr %20, align 4
  %159 = load i32, ptr %38, align 4
  %160 = add nsw i32 %159, %158
  store i32 %160, ptr %38, align 4
  br label %161

161:                                              ; preds = %153
  %162 = load i32, ptr %37, align 4
  %163 = add i32 %162, -1
  store i32 %163, ptr %37, align 4
  %164 = icmp ugt i32 %163, 0
  br i1 %164, label %132, label %165, !llvm.loop !37

165:                                              ; preds = %161
  %166 = load ptr, ptr %34, align 8
  %167 = ptrtoint ptr %166 to i64
  %168 = load i32, ptr %36, align 4
  %169 = sext i32 %168 to i64
  %170 = add nsw i64 %167, %169
  %171 = inttoptr i64 %170 to ptr
  store ptr %171, ptr %34, align 8
  %172 = load i32, ptr %21, align 4
  %173 = load i32, ptr %19, align 4
  %174 = add nsw i32 %173, %172
  store i32 %174, ptr %19, align 4
  br label %175

175:                                              ; preds = %165
  %176 = load i32, ptr %17, align 4
  %177 = add i32 %176, -1
  store i32 %177, ptr %17, align 4
  %178 = icmp ugt i32 %177, 0
  br i1 %178, label %118, label %179, !llvm.loop !38

179:                                              ; preds = %175
  br label %180

180:                                              ; preds = %179
  ret void
}