; Function Attrs: nofree norecurse nosync nounwind memory(readwrite, inaccessiblemem: none) uwtable
define hidden void @ByteIndexedBmToUshort555RgbxScaleXparOver(ptr noundef %0, ptr noundef %1, i32 noundef %2, i32 noundef %3, i32 noundef %4, i32 noundef %5, i32 noundef %6, i32 noundef %7, i32 noundef %8, ptr nocapture noundef readonly %9, ptr nocapture noundef readonly %10, ptr nocapture readnone %11, ptr nocapture readnone %12) #1 {
  %14 = alloca [256 x i32], align 16
  %15 = getelementptr inbounds i8, ptr %9, i64 40
  %16 = load ptr, ptr %15, align 8
  %17 = getelementptr inbounds i8, ptr %9, i64 36
  %18 = load i32, ptr %17, align 4
  %19 = icmp ugt i32 %18, 255
  br i1 %19, label %.loopexit, label %.loopexit.loopexit

.loopexit.loopexit:                               ; preds = %13
  %20 = shl nuw nsw i32 %18, 2
  %.idx = zext nneg i32 %20 to i64
  %scevgep = getelementptr i8, ptr %14, i64 %.idx
  %21 = sub nuw nsw i64 1024, %.idx
  call void @llvm.memset.p0.i64(ptr align 4 %scevgep, i8 -1, i64 %21, i1 false)
  br label %.loopexit

.loopexit:                                        ; preds = %.loopexit.loopexit, %13
  %.045 = phi i32 [ 256, %13 ], [ %18, %.loopexit.loopexit ]
  %umax = tail call i32 @llvm.umax.i32(i32 %.045, i32 1)
  %wide.trip.count = zext nneg i32 %umax to i64
  br label %22

22:                                               ; preds = %35, %.loopexit
  %indvars.iv = phi i64 [ %indvars.iv.next, %35 ], [ 0, %.loopexit ]
  %23 = getelementptr inbounds i32, ptr %16, i64 %indvars.iv
  %24 = load i32, ptr %23, align 4
  %25 = icmp slt i32 %24, 0
  br i1 %25, label %26, label %35

26:                                               ; preds = %22
  %27 = lshr i32 %24, 8
  %28 = and i32 %27, 63488
  %29 = lshr i32 %24, 5
  %30 = and i32 %29, 1984
  %31 = or disjoint i32 %28, %30
  %32 = lshr i32 %24, 2
  %33 = and i32 %32, 62
  %34 = or disjoint i32 %31, %33
  br label %35

35:                                               ; preds = %22, %26
  %.sink = phi i32 [ %34, %26 ], [ -1, %22 ]
  %36 = getelementptr inbounds [256 x i32], ptr %14, i64 0, i64 %indvars.iv
  store i32 %.sink, ptr %36, align 4
  %indvars.iv.next = add nuw nsw i64 %indvars.iv, 1
  %exitcond.not = icmp eq i64 %indvars.iv.next, %wide.trip.count
  br i1 %exitcond.not, label %37, label %22, !llvm.loop !32

37:                                               ; preds = %35
  %38 = getelementptr inbounds i8, ptr %9, i64 32
  %39 = load i32, ptr %38, align 8
  %40 = getelementptr inbounds i8, ptr %10, i64 32
  %41 = load i32, ptr %40, align 8
  %42 = shl i32 %2, 1
  %43 = sub i32 %41, %42
  %44 = sext i32 %43 to i64
  %45 = ptrtoint ptr %0 to i64
  %46 = sext i32 %39 to i64
  br label %47

47:                                               ; preds = %70, %37
  %.046 = phi ptr [ %1, %37 ], [ %72, %70 ]
  %.042 = phi i32 [ %5, %37 ], [ %73, %70 ]
  %.0 = phi i32 [ %3, %37 ], [ %74, %70 ]
  %48 = ashr i32 %.042, %8
  %49 = sext i32 %48 to i64
  %50 = mul nsw i64 %49, %46
  %51 = add nsw i64 %50, %45
  %52 = inttoptr i64 %51 to ptr
  br label %53

53:                                               ; preds = %64, %47
  %.1 = phi ptr [ %.046, %47 ], [ %67, %64 ]
  %.044 = phi i32 [ %2, %47 ], [ %69, %64 ]
  %.043 = phi i32 [ %4, %47 ], [ %68, %64 ]
  %54 = ashr i32 %.043, %8
  %55 = sext i32 %54 to i64
  %56 = getelementptr inbounds i8, ptr %52, i64 %55
  %57 = load i8, ptr %56, align 1
  %58 = zext i8 %57 to i64
  %59 = getelementptr inbounds [256 x i32], ptr %14, i64 0, i64 %58
  %60 = load i32, ptr %59, align 4
  %61 = icmp slt i32 %60, 0
  br i1 %61, label %64, label %62

62:                                               ; preds = %53
  %63 = trunc i32 %60 to i16
  store i16 %63, ptr %.1, align 2
  br label %64

64:                                               ; preds = %53, %62
  %65 = ptrtoint ptr %.1 to i64
  %66 = add nsw i64 %65, 2
  %67 = inttoptr i64 %66 to ptr
  %68 = add nsw i32 %.043, %6
  %69 = add i32 %.044, -1
  %.not = icmp eq i32 %69, 0
  br i1 %.not, label %70, label %53, !llvm.loop !33

70:                                               ; preds = %64
  %71 = add nsw i64 %66, %44
  %72 = inttoptr i64 %71 to ptr
  %73 = add nsw i32 %.042, %7
  %74 = add i32 %.0, -1
  %.not56 = icmp eq i32 %74, 0
  br i1 %.not56, label %75, label %47, !llvm.loop !34

75:                                               ; preds = %70
  ret void
}